target datalayout = "e-m:e-p270:32:32-p271:32:32-p272:64:64-i64:64-i128:128-f80:128-n8:16:32:64-S128"
target triple = "x86_64-pc-linux-gnu"

%struct.PLATFORM_hid_device_ = type { i32, i32, i32, ptr, ptr }
%struct.__va_list_tag = type { i32, i32, ptr, ptr }

@.str.31 = private unnamed_addr constant [3 x i8] c"%s\00", align 1

; Function Attrs: nounwind uwtable
define internal void @register_error_str(ptr noundef %0, ptr noundef %1) #0 {
  %3 = alloca ptr, align 8
  %4 = alloca ptr, align 8
  store ptr %0, ptr %3, align 8
  store ptr %1, ptr %4, align 8
  %5 = load ptr, ptr %3, align 8
  %6 = load ptr, ptr %5, align 8
  call void @free(ptr noundef %6) #10
  %7 = load ptr, ptr %4, align 8
  %8 = icmp ne ptr %7, null
  br i1 %8, label %9, label %12

9:                                                ; preds = %2
  %10 = load ptr, ptr %4, align 8
  %11 = call zeroext i1 (ptr, ...) @SDL_SetError_REAL(ptr noundef @.str.31, ptr noundef %10)
  br label %14

12:                                               ; preds = %2
  %13 = call zeroext i1 @SDL_ClearError_REAL()
  br label %14

14:                                               ; preds = %12, %9
  ret void
}

; Function Attrs: nounwind uwtable
define internal void @register_error_str_vformat(ptr noundef %0, ptr noundef %1, ptr noundef %2) #0 {
  %4 = alloca ptr, align 8
  %5 = alloca ptr, align 8
  %6 = alloca ptr, align 8
  %7 = alloca [256 x i8], align 16
  store ptr %0, ptr %4, align 8
  store ptr %1, ptr %5, align 8
  store ptr %2, ptr %6, align 8
  call void @llvm.lifetime.start.p0(i64 256, ptr %7) #10
  %8 = getelementptr inbounds [256 x i8], ptr %7, i64 0, i64 0
  %9 = load ptr, ptr %5, align 8
  %10 = load ptr, ptr %6, align 8
  %11 = call i32 @vsnprintf(ptr noundef %8, i64 noundef 256, ptr noundef %9, ptr noundef %10) #10
  %12 = load ptr, ptr %4, align 8
  %13 = getelementptr inbounds [256 x i8], ptr %7, i64 0, i64 0
  call void @register_error_str(ptr noundef %12, ptr noundef %13)
  call void @llvm.lifetime.end.p0(i64 256, ptr %7) #10
  ret void
}

; Function Attrs: nounwind uwtable
define internal void @register_device_error_format(ptr noundef %0, ptr noundef %1, ...) #0 {
  %3 = alloca ptr, align 8
  %4 = alloca ptr, align 8
  %5 = alloca [1 x %struct.__va_list_tag], align 16
  store ptr %0, ptr %3, align 8
  store ptr %1, ptr %4, align 8
  call void @llvm.lifetime.start.p0(i64 24, ptr %5) #10
  %6 = getelementptr inbounds [1 x %struct.__va_list_tag], ptr %5, i64 0, i64 0
  call void @llvm.va_start.p0(ptr %6)
  %7 = load ptr, ptr %3, align 8
  %8 = getelementptr inbounds nuw %struct.PLATFORM_hid_device_, ptr %7, i32 0, i32 3
  %9 = load ptr, ptr %4, align 8
  %10 = getelementptr inbounds [1 x %struct.__va_list_tag], ptr %5, i64 0, i64 0
  call void @register_error_str_vformat(ptr noundef %8, ptr noundef %9, ptr noundef %10)
  %11 = getelementptr inbounds [1 x %struct.__va_list_tag], ptr %5, i64 0, i64 0
  call void @llvm.va_end.p0(ptr %11)
  call void @llvm.lifetime.end.p0(i64 24, ptr %5) #10
  ret void
}