; Function Attrs: nounwind uwtable
define internal void @register_device_error_format(ptr noundef readonly captures(none) %0, ptr noundef readonly captures(none) %1, ...) unnamed_addr #1 {
  %3 = alloca [256 x i8], align 16
  %4 = alloca [1 x %struct.__va_list_tag], align 16
  call void @llvm.lifetime.start.p0(i64 24, ptr nonnull %4) #22
  call void @llvm.va_start.p0(ptr nonnull %4)
  %5 = getelementptr inbounds nuw i8, ptr %0, i64 16
  call void @llvm.lifetime.start.p0(i64 256, ptr nonnull %3) #22
  %6 = call i32 @vsnprintf(ptr noundef nonnull %3, i64 noundef 256, ptr noundef readonly %1, ptr noundef nonnull %4) #22
  %.val.i = load ptr, ptr %5, align 8
  call void @free(ptr noundef %.val.i) #22
  %7 = call zeroext i1 (ptr, ...) @SDL_SetError_REAL(ptr noundef nonnull @.str.31, ptr noundef nonnull %3) #22
  call void @llvm.lifetime.end.p0(i64 256, ptr nonnull %3) #22
  call void @llvm.va_end.p0(ptr nonnull %4)
  call void @llvm.lifetime.end.p0(i64 24, ptr nonnull %4) #22
  ret void
}